     VMA      LMA     Size Align Out     In      Symbol
       0        0     8000     1 . = 0x8000
    8000        0        0     1 _start_text = .
    8000     8000     3558     4 .text
    8000     8000      354     4         kmain.c.o:(.text)
    8000     8000        0     1                 $a.0
    8000     8000        0     1                 _start
    8008     8008      34c     1                 kmain
    8350     8350        0     1                 $d.1
    8354     8354       94     4         serial.c.o:(.text)
    8354     8354        0     1                 $a.0
    8354     8354       54     1                 serial_init
    8398     8398        0     1                 $d.1
    83a8     83a8        0     1                 $a.2
    83a8     83a8       40     1                 serial_putc
    83e0     83e0        0     1                 $d.3
    83e8     83e8       20     4         console.c.o:(.text)
    83e8     83e8        0     1                 $a.0
    83e8     83e8       20     1                 console_putc
    8408     8408       b4     4         utils.c.o:(.text)
    8408     8408        0     1                 $a.0
    8408     8408       48     1                 bss_init
    8448     8448        0     1                 $d.1
    8450     8450        0     1                 $a.2
    8450     8450       6c     1                 kmemset
    84bc     84bc     2c90     4         kprintf.c.o:(.text)
    84bc     84bc        0     1                 $a.0
    84bc     84bc       3c     1                 stbsp_set_separators
    84f0     84f0        0     1                 $d.1
    84f8     84f8        0     1                 $a.2
    84f8     84f8     2178     1                 stbsp_vsprintfcb
    873c     873c        0     1                 $d.3
    883c     883c        0     1                 $a.4
    8b24     8b24        0     1                 $d.5
    8bec     8bec        0     1                 $a.6
    8d5c     8d5c        0     1                 $d.7
    8e3c     8e3c        0     1                 $a.8
    9620     9620        0     1                 $d.9
    962c     962c        0     1                 $a.10
    9e60     9e60        0     1                 $d.11
    9e64     9e64        0     1                 $a.12
    9f3c     9f3c        0     1                 $d.13
    9f40     9f40        0     1                 $a.14
    9f74     9f74        0     1                 $d.15
    9f7c     9f7c        0     1                 $a.16
    9ff8     9ff8        0     1                 $d.17
    9ffc     9ffc        0     1                 $a.18
    a030     a030        0     1                 $d.19
    a038     a038        0     1                 $a.20
    a268     a268        0     1                 $d.21
    a26c     a26c        0     1                 $a.22
    a3e8     a3e8        0     1                 $d.23
    a3ec     a3ec        0     1                 $a.24
    a494     a494        0     1                 $d.25
    a498     a498        0     1                 $a.26
    a500     a500        0     1                 $d.27
    a504     a504        0     1                 $a.28
    a638     a638        0     1                 $d.29
    a63c     a63c        0     1                 $a.30
    a664     a664        0     1                 $d.31
    a670     a670      168     1                 stbsp__strlen_limited
    a670     a670        0     1                 $a.32
    a7d0     a7d0        0     1                 $d.33
    a7d8     a7d8       f8     1                 mod64
    a7d8     a7d8        0     1                 $a.34
    a8d0     a8d0      128     1                 div64
    a9f8     a9f8       ac     1                 mod
    aaa4     aaa4       c8     1                 div
    ab6c     ab6c       ac     1                 stbsp__lead_sign
    ac18     ac18       60     1                 stbsp_sprintf
    ac78     ac78      114     1                 stbsp_vsnprintf
    ad84     ad84        0     1                 $d.35
    ad8c     ad8c       3c     1                 stbsp__count_clamp_callback
    ad8c     ad8c        0     1                 $a.36
    adc8     adc8      17c     1                 stbsp__clamp_callback
    af44     af44       54     1                 stbsp_snprintf
    af98     af98       40     1                 stbsp_vsprintf
    afd8     afd8       68     1                 kprintf
    b03c     b03c        0     1                 $d.37
    b040     b040       68     1                 callback
    b040     b040        0     1                 $a.38
    b0a8     b0a8       50     1                 ksprintf
    b0f8     b0f8       54     1                 ksnprintf
    b14c     b14c      3f8     4         video.c.o:(.text)
    b14c     b14c        0     1                 $a.0
    b14c     b14c      124     1                 video_init
    b260     b260        0     1                 $d.1
    b270     b270       64     1                 mailbox_write
    b270     b270        0     1                 $a.2
    b2cc     b2cc        0     1                 $d.3
    b2d4     b2d4       80     1                 mailbox_read
    b2d4     b2d4        0     1                 $a.4
    b34c     b34c        0     1                 $d.5
    b354     b354        0     1                 $a.6
    b354     b354       9c     1                 video_set_pixel
    b3e8     b3e8        0     1                 $d.7
    b3f0     b3f0        0     1                 $a.8
    b3f0     b3f0      154     1                 video_draw_character
    b538     b538        0     1                 $d.9
    b544     b544       14     4         memory.c.o:(.text)
    b544     b544        0     1                 $a.0
    b544     b544       14     1                 memory_barrier
    b558     b558        0     1 _end_text = .
    b558     b558       10     4 .ARM.exidx
    b558     b558       10     4         <internal>:(.ARM.exidx)
    b568     b568      a98     1 . = ALIGN ( 4096 )
    c000     c000        0     1 _start_rodata = .
    c000     c000     5018     4 .rodata
    c000     c000       15     1         <internal>:(.rodata)
    c018     c018     5000     4         video.c.o:(.rodata)
    c018     c018     5000     1                 font_data
   11018    11018        0     1 _end_rodata = .
   11018    11018       10     4 .got
   11018    11018       10     4         <internal>:(.got)
   11028    11028      fd8     1 . = ALIGN ( 4096 )
   12000    12000        0     1 _start_data = .
   12000    12000       f4     2 .data
   12000    12000       f4     2         kprintf.c.o:(.data)
   12000    12000        1     1                 stbsp__period
   12001    12001        1     1                 stbsp__comma
   12002    12002       13     1                 stbsp_vsprintfcb.hex
   12015    12015       13     1                 stbsp_vsprintfcb.hexu
   12028    12028       cc     1                 stbsp__digitpair
   120f4    120f4        0     1 _end_data = .
   120f4    120f4      f0c     1 . = ALIGN ( 4096 )
   13000    13000        0     1 _start_bss = .
   13000    13000       10     4 .bss
   13000    13000       10     4         video.c.o:(.bss)
   13000    13000        3     1                 foregroundColor
   13003    13003        3     1                 backgroundColor
   13008    13008        4     1                 framebuffer
   1300c    1300c        4     1                 pitch
   13010    13010        0     1 _end_bss = .
   13010    13010      ff0     1 . = ALIGN ( 4096 )
       0        0       29     1 .comment
       0        0       29     1         <internal>:(.comment)
       0        0       4a     1 .ARM.attributes
       0        0       4a     1         kmain.c.o:(.ARM.attributes)
       0        0      750     4 .symtab
       0        0      750     4         <internal>:(.symtab)
       0        0       5d     1 .shstrtab
       0        0       5d     1         <internal>:(.shstrtab)
       0        0      405     1 .strtab
       0        0      405     1         <internal>:(.strtab)
