     VMA      LMA     Size Align Out     In      Symbol
       0        0     8000     1 . = 0x8000
    8000        0        0     1 _start_text = .
    8000     8000     6a38     4 .text
    8000     8000       5c     4         kmain.c.o:(.text)
    8000     8000        0     1                 $a.0
    8000     8000        0     1                 _start
    8008     8008       54     1                 kmain
    8054     8054        0     1                 $d.1
    805c     805c       94     4         serial.c.o:(.text)
    805c     805c        0     1                 $a.0
    805c     805c       54     1                 serial_init
    80a0     80a0        0     1                 $d.1
    80b0     80b0        0     1                 $a.2
    80b0     80b0       40     1                 serial_putc
    80e8     80e8        0     1                 $d.3
    80f0     80f0      f14     4         testsuite.c.o:(.text)
    80f0     80f0        0     1                 $a.0
    80f0     80f0      cc8     1                 sweet
    8c94     8c94        0     1                 $d.1
    8db8     8db8       50     1                 mystrlen
    8db8     8db8        0     1                 $a.2
    8e08     8e08      1fc     1                 memdump
    8fec     8fec        0     1                 $d.3
    9004     9004      714     4         console.c.o:(.text)
    9004     9004        0     1                 $a.0
    9004     9004      714     1                 console_putc
    9630     9630        0     1                 $d.1
    9718     9718      c94     4         file.c.o:(.text)
    9718     9718        0     1                 $a.0
    9718     9718      200     1                 file_open
    9900     9900        0     1                 $d.1
    9918     9918        0     1                 $a.2
    9918     9918      3d4     1                 scanForMatchingFilename
    9cec     9cec       94     1                 file_close
    9d78     9d78        0     1                 $d.3
    9d80     9d80        0     1                 $a.4
    9d80     9d80      1dc     1                 file_read
    9f44     9f44        0     1                 $d.5
    9f5c     9f5c        0     1                 $a.6
    9f5c     9f5c      394     1                 file_seek
    a2b0     a2b0        0     1                 $d.7
    a2f0     a2f0        0     1                 $a.8
    a2f0     a2f0       a0     1                 file_tell
    a388     a388        0     1                 $d.9
    a390     a390        0     1                 $a.10
    a390     a390       1c     1                 file_write
    a3ac     a3ac      468     4         video.c.o:(.text)
    a3ac     a3ac        0     1                 $a.0
    a3ac     a3ac      120     1                 video_init
    a4bc     a4bc        0     1                 $d.1
    a4cc     a4cc       64     1                 mailbox_write
    a4cc     a4cc        0     1                 $a.2
    a528     a528        0     1                 $d.3
    a530     a530       80     1                 mailbox_read
    a530     a530        0     1                 $a.4
    a5a8     a5a8        0     1                 $d.5
    a5b0     a5b0        0     1                 $a.6
    a5b0     a5b0       a4     1                 video_set_pixel
    a64c     a64c        0     1                 $d.7
    a654     a654        0     1                 $a.8
    a654     a654      1c0     1                 video_draw_character
    a800     a800        0     1                 $d.9
    a814     a814      3c4     4         interrupt.c.o:(.text)
    a814     a814        0     1                 interrupt_table_begin
    a814     a814        0     1                 $a.0
    a834     a834        0     1                 $d.1
    a854     a854        0     1                 asm_handler_reset
    a854     a854        0     1                 interrupt_table_end
    a854     a854        0     1                 $a.2
    a870     a870        0     1                 asm_handler_undefined
    a88c     a88c        0     1                 asm_handler_svc
    a8a4     a8a4        0     1                 asm_handler_prefetch_abort
    a8c0     a8c0        0     1                 asm_handler_data_abort
    a8dc     a8dc        0     1                 asm_handler_reserved
    a8f8     a8f8        0     1                 asm_handler_irq
    a914     a914        0     1                 asm_handler_fiq
    a930     a930       50     1                 interrupt_init
    a978     a978        0     1                 $d.3
    a980     a980        0     1                 $a.4
    a980     a980        c     1                 halt
    a98c     a98c       20     1                 handler_reset
    a9a8     a9a8        0     1                 $d.5
    a9ac     a9ac        0     1                 $a.6
    a9ac     a9ac       20     1                 handler_undefined
    a9c8     a9c8        0     1                 $d.7
    a9cc     a9cc        0     1                 $a.8
    a9cc     a9cc       20     1                 handler_svc
    a9e8     a9e8        0     1                 $d.9
    a9ec     a9ec        0     1                 $a.10
    a9ec     a9ec       20     1                 handler_prefetch_abort
    aa08     aa08        0     1                 $d.11
    aa0c     aa0c        0     1                 $a.12
    aa0c     aa0c       20     1                 handler_data_abort
    aa28     aa28        0     1                 $d.13
    aa2c     aa2c        0     1                 $a.14
    aa2c     aa2c       20     1                 handler_reserved
    aa48     aa48        0     1                 $d.15
    aa4c     aa4c        0     1                 $a.16
    aa4c     aa4c       68     1                 handler_irq
    aaac     aaac        0     1                 $d.17
    aab4     aab4        0     1                 $a.18
    aab4     aab4       20     1                 handler_fiq
    aad0     aad0        0     1                 $d.19
    aad4     aad4        0     1                 $a.20
    aad4     aad4       10     1                 interrupt_enable
    aae4     aae4       d4     1                 register_interrupt_handler
    ab9c     ab9c        0     1                 $d.21
    abd8     abd8        0     4         errno.c.o:(.text)
    abd8     abd8      9cc     4         sd.c.o:(.text)
    abd8     abd8        0     1                 $a.0
    abd8     abd8      2a0     1                 sd_init
    ae40     ae40        0     1                 $d.1
    ae78     ae78        0     1                 $a.2
    ae78     ae78       50     1                 delay_millisec
    aec8     aec8      1c8     1                 setClock
    b07c     b07c        0     1                 $d.3
    b090     b090      194     1                 sendCommand
    b090     b090        0     1                 $a.4
    b204     b204        0     1                 $d.5
    b224     b224       6c     1                 sendAppCommand
    b224     b224        0     1                 $a.6
    b290     b290       c0     1                 waitForStatusBitsToBeZero
    b340     b340        0     1                 $d.7
    b350     b350       cc     1                 waitForInterrupt
    b350     b350        0     1                 $a.8
    b410     b410        0     1                 $d.9
    b41c     b41c        0     1                 $a.10
    b41c     b41c       b8     1                 sd_read_sector
    b4c8     b4c8        0     1                 $d.11
    b4d4     b4d4        0     1                 $a.12
    b4d4     b4d4       b8     1                 sd_write_sector
    b584     b584        0     1                 $d.13
    b58c     b58c       18     1                 getHostControllerVersion
    b58c     b58c        0     1                 $a.14
    b5a0     b5a0        0     1                 $d.15
    b5a4     b5a4      338     4         utils.c.o:(.text)
    b5a4     b5a4        0     1                 $a.0
    b5a4     b5a4       48     1                 bss_init
    b5e4     b5e4        0     1                 $d.1
    b5ec     b5ec        0     1                 $a.2
    b5ec     b5ec       6c     1                 kmemset
    b658     b658       68     1                 kmemcpy
    b6c0     b6c0       a8     1                 getValue
    b768     b768       28     1                 panic
    b78c     b78c        0     1                 $d.3
    b790     b790        0     1                 $a.4
    b790     b790       44     1                 toupper
    b7d4     b7d4       c4     1                 kmemcmp
    b898     b898       44     1                 Min32
    b8dc     b8dc      108     4         timer.c.o:(.text)
    b8dc     b8dc        0     1                 $a.0
    b8dc     b8dc       4c     1                 timer_init
    b918     b918        0     1                 $d.1
    b928     b928        0     1                 $a.2
    b928     b928       84     1                 timer_interrupt
    b99c     b99c        0     1                 $d.3
    b9ac     b9ac        0     1                 $a.4
    b9ac     b9ac       38     1                 get_uptime
    b9d8     b9d8        0     1                 $d.5
    b9e4     b9e4      3b0     4         fs.c.o:(.text)
    b9e4     b9e4        0     1                 $a.0
    b9e4     b9e4      28c     1                 disk_init
    bc50     bc50        0     1                 $d.1
    bc70     bc70        0     1                 $a.2
    bc70     bc70       7c     1                 clusterNumberToSectorNumber
    bce4     bce4        0     1                 $d.3
    bcec     bcec        0     1                 $a.4
    bcec     bcec       a8     1                 read_cluster
    bd94     bd94     2c90     4         kprintf.c.o:(.text)
    bd94     bd94        0     1                 $a.0
    bd94     bd94       3c     1                 stbsp_set_separators
    bdc8     bdc8        0     1                 $d.1
    bdd0     bdd0        0     1                 $a.2
    bdd0     bdd0     2178     1                 stbsp_vsprintfcb
    c014     c014        0     1                 $d.3
    c114     c114        0     1                 $a.4
    c3fc     c3fc        0     1                 $d.5
    c4c4     c4c4        0     1                 $a.6
    c634     c634        0     1                 $d.7
    c714     c714        0     1                 $a.8
    cef8     cef8        0     1                 $d.9
    cf04     cf04        0     1                 $a.10
    d738     d738        0     1                 $d.11
    d73c     d73c        0     1                 $a.12
    d814     d814        0     1                 $d.13
    d818     d818        0     1                 $a.14
    d84c     d84c        0     1                 $d.15
    d854     d854        0     1                 $a.16
    d8d0     d8d0        0     1                 $d.17
    d8d4     d8d4        0     1                 $a.18
    d908     d908        0     1                 $d.19
    d910     d910        0     1                 $a.20
    db40     db40        0     1                 $d.21
    db44     db44        0     1                 $a.22
    dcc0     dcc0        0     1                 $d.23
    dcc4     dcc4        0     1                 $a.24
    dd6c     dd6c        0     1                 $d.25
    dd70     dd70        0     1                 $a.26
    ddd8     ddd8        0     1                 $d.27
    dddc     dddc        0     1                 $a.28
    df10     df10        0     1                 $d.29
    df14     df14        0     1                 $a.30
    df3c     df3c        0     1                 $d.31
    df48     df48      168     1                 stbsp__strlen_limited
    df48     df48        0     1                 $a.32
    e0a8     e0a8        0     1                 $d.33
    e0b0     e0b0       f8     1                 mod64
    e0b0     e0b0        0     1                 $a.34
    e1a8     e1a8      128     1                 div64
    e2d0     e2d0       ac     1                 mod
    e37c     e37c       c8     1                 div
    e444     e444       ac     1                 stbsp__lead_sign
    e4f0     e4f0       60     1                 stbsp_sprintf
    e550     e550      114     1                 stbsp_vsnprintf
    e65c     e65c        0     1                 $d.35
    e664     e664       3c     1                 stbsp__count_clamp_callback
    e664     e664        0     1                 $a.36
    e6a0     e6a0      17c     1                 stbsp__clamp_callback
    e81c     e81c       54     1                 stbsp_snprintf
    e870     e870       40     1                 stbsp_vsprintf
    e8b0     e8b0       68     1                 kprintf
    e914     e914        0     1                 $d.37
    e918     e918       68     1                 callback
    e918     e918        0     1                 $a.38
    e980     e980       50     1                 ksprintf
    e9d0     e9d0       54     1                 ksnprintf
    ea24     ea24       14     4         memory.c.o:(.text)
    ea24     ea24        0     1                 $a.0
    ea24     ea24       14     1                 memory_barrier
    ea38     ea38        0     1 _end_text = .
    ea38     ea38       10     4 .ARM.exidx
    ea38     ea38       10     4         <internal>:(.ARM.exidx)
    ea48     ea48      5b8     1 . = ALIGN ( 4096 )
    f000     f000        0     1 _start_rodata = .
    f000     f000     6018     4 .rodata
    f000     f000      8fe     1         <internal>:(.rodata)
    f900     f900      718     4         testsuite.c.o:(.rodata)
    f900     f900      3b6     1                 article6
    fcb6     fcb6      353     1                 article5
   10018    10018     5000     4         video.c.o:(.rodata)
   10018    10018     5000     1                 font_data
   15018    15018        0     1 _end_rodata = .
   15018    15018        c     4 .data.rel.ro
   15018    15018        c     4         testsuite.c.o:(.data.rel.ro)
   15018    15018        c     1                 .L__const.sweet.p
   15024    15024       38     4 .got
   15024    15024       38     4         <internal>:(.got)
   1505c    1505c      fa4     1 . = ALIGN ( 4096 )
   16000    16000        0     1 _start_data = .
   16000    16000      374     4 .data
   16000    16000      270     4         testsuite.c.o:(.data)
   16000    16000      270     1                 seeks
   16270    16270        c     4         console.c.o:(.data)
   16270    16270        4     1                 console_putc.col
   16274    16274        4     1                 console_putc.curr_fg
   16278    16278        4     1                 console_putc.max_col
   1627c    1627c        4     4         timer.c.o:(.data)
   1627c    1627c        4     1                 delta
   16280    16280       f4     2         kprintf.c.o:(.data)
   16280    16280        1     1                 stbsp__period
   16281    16281        1     1                 stbsp__comma
   16282    16282       13     1                 stbsp_vsprintfcb.hex
   16295    16295       13     1                 stbsp_vsprintfcb.hexu
   162a8    162a8       cc     1                 stbsp__digitpair
   16374    16374        0     1 _end_data = .
   16374    16374      c8c     1 . = ALIGN ( 4096 )
   17000    17000        0     1 _start_bss = .
   17000    17000     c1e8     4 .bss
   17000    17000      c20     1         testsuite.c.o:(.bss)
   17000    17000      400     1                 sweet.a6a
   17400    17400      400     1                 sweet.a6b
   17800    17800      400     1                 sweet.a5
   17c00    17c00       20     1                 sweet.buf
   17c20    17c20        c     4         console.c.o:(.bss)
   17c20    17c20        4     1                 doingColor
   17c24    17c24        4     1                 console_putc.row
   17c28    17c28        4     1                 console_putc.curr_bg
   17c2c    17c2c     1180     4         file.c.o:(.bss)
   17c2c    17c2c      180     1                 fileTable
   17dac    17dac     1000     1                 clusterBuffer
   18dac    18dac       10     4         video.c.o:(.bss)
   18dac    18dac        3     1                 foregroundColor
   18daf    18daf        3     1                 backgroundColor
   18db4    18db4        4     1                 framebuffer
   18db8    18db8        4     1                 pitch
   18dbc    18dbc     8024     4         interrupt.c.o:(.bss)
   18dbc    18dbc        4     1                 numHandlers
   18dc0    18dc0       20     1                 handlers
   18de0    18de0     1000     1                 reset_stack
   19de0    19de0     1000     1                 undefined_stack
   1ade0    1ade0     1000     1                 svc_stack
   1bde0    1bde0     1000     1                 prefetch_abort_stack
   1cde0    1cde0     1000     1                 data_abort_stack
   1dde0    1dde0     1000     1                 reserved_stack
   1ede0    1ede0     1000     1                 irq_stack
   1fde0    1fde0     1000     1                 fiq_stack
   20de0    20de0        4     4         timer.c.o:(.bss)
   20de0    20de0        4     1                 jiffies
   20de4    20de4     2404     4         fs.c.o:(.bss)
   20de4    20de4      200     1                 sectorbuffer
   20fe4    20fe4        4     1                 first_sector
   20fe8    20fe8      200     1                 vbr
   211e8    211e8     1000     1                 buff
   221e8    221e8     1000     1                 buff2
   231e8    231e8        0     1 _end_bss = .
   231e8    231e8      e18     1 . = ALIGN ( 4096 )
       0        0       29     1 .comment
       0        0       29     1         <internal>:(.comment)
       0        0       4a     1 .ARM.attributes
       0        0       4a     1         kmain.c.o:(.ARM.attributes)
       0        0     1160     4 .symtab
       0        0     1160     4         <internal>:(.symtab)
       0        0       6a     1 .shstrtab
       0        0       6a     1         <internal>:(.shstrtab)
       0        0      a49     1 .strtab
       0        0      a49     1         <internal>:(.strtab)
