     VMA      LMA     Size Align Out     In      Symbol
       0        0     8000     1 . = 0x8000
    8000        0        0     1 _start_text = .
    8000     8000     2e28     4 .text
    8000     8000       30     4         kmain.c.o:(.text)
    8000     8000        0     1                 $a.0
    8000     8000        0     1                 _start
    8008     8008       28     1                 kmain
    802c     802c        0     1                 $d.1
    8030     8030       94     4         serial.c.o:(.text)
    8030     8030        0     1                 $a.0
    8030     8030       54     1                 serial_init
    8074     8074        0     1                 $d.1
    8084     8084        0     1                 $a.2
    8084     8084       40     1                 serial_putc
    80bc     80bc        0     1                 $d.3
    80c4     80c4       b4     4         utils.c.o:(.text)
    80c4     80c4        0     1                 $a.0
    80c4     80c4       48     1                 bss_init
    8104     8104        0     1                 $d.1
    810c     810c        0     1                 $a.2
    810c     810c       6c     1                 kmemset
    8178     8178       20     4         console.c.o:(.text)
    8178     8178        0     1                 $a.0
    8178     8178       20     1                 console_putc
    8198     8198     2c90     4         kprintf.c.o:(.text)
    8198     8198        0     1                 $a.0
    8198     8198       3c     1                 stbsp_set_separators
    81cc     81cc        0     1                 $d.1
    81d4     81d4        0     1                 $a.2
    81d4     81d4     2178     1                 stbsp_vsprintfcb
    8418     8418        0     1                 $d.3
    8518     8518        0     1                 $a.4
    8800     8800        0     1                 $d.5
    88c8     88c8        0     1                 $a.6
    8a38     8a38        0     1                 $d.7
    8b18     8b18        0     1                 $a.8
    92fc     92fc        0     1                 $d.9
    9308     9308        0     1                 $a.10
    9b3c     9b3c        0     1                 $d.11
    9b40     9b40        0     1                 $a.12
    9c18     9c18        0     1                 $d.13
    9c1c     9c1c        0     1                 $a.14
    9c50     9c50        0     1                 $d.15
    9c58     9c58        0     1                 $a.16
    9cd4     9cd4        0     1                 $d.17
    9cd8     9cd8        0     1                 $a.18
    9d0c     9d0c        0     1                 $d.19
    9d14     9d14        0     1                 $a.20
    9f44     9f44        0     1                 $d.21
    9f48     9f48        0     1                 $a.22
    a0c4     a0c4        0     1                 $d.23
    a0c8     a0c8        0     1                 $a.24
    a170     a170        0     1                 $d.25
    a174     a174        0     1                 $a.26
    a1dc     a1dc        0     1                 $d.27
    a1e0     a1e0        0     1                 $a.28
    a314     a314        0     1                 $d.29
    a318     a318        0     1                 $a.30
    a340     a340        0     1                 $d.31
    a34c     a34c      168     1                 stbsp__strlen_limited
    a34c     a34c        0     1                 $a.32
    a4ac     a4ac        0     1                 $d.33
    a4b4     a4b4       f8     1                 mod64
    a4b4     a4b4        0     1                 $a.34
    a5ac     a5ac      128     1                 div64
    a6d4     a6d4       ac     1                 mod
    a780     a780       c8     1                 div
    a848     a848       ac     1                 stbsp__lead_sign
    a8f4     a8f4       60     1                 stbsp_sprintf
    a954     a954      114     1                 stbsp_vsnprintf
    aa60     aa60        0     1                 $d.35
    aa68     aa68       3c     1                 stbsp__count_clamp_callback
    aa68     aa68        0     1                 $a.36
    aaa4     aaa4      17c     1                 stbsp__clamp_callback
    ac20     ac20       54     1                 stbsp_snprintf
    ac74     ac74       40     1                 stbsp_vsprintf
    acb4     acb4       68     1                 kprintf
    ad18     ad18        0     1                 $d.37
    ad1c     ad1c       68     1                 callback
    ad1c     ad1c        0     1                 $a.38
    ad84     ad84       50     1                 ksprintf
    add4     add4       54     1                 ksnprintf
    ae28     ae28        0     1 _end_text = .
    ae28     ae28       10     4 .ARM.exidx
    ae28     ae28       10     4         <internal>:(.ARM.exidx)
    ae38     ae38      1c8     1 . = ALIGN ( 4096 )
    b000     b000        0     1 _start_rodata = .
    b000     b000       32     1 .rodata
    b000     b000       32     1         <internal>:(.rodata)
    b032     b032        0     1 _end_rodata = .
    b034     b034        8     4 .got
    b034     b034        8     4         <internal>:(.got)
    b03c     b03c      fc4     1 . = ALIGN ( 4096 )
    c000     c000        0     1 _start_data = .
    c000     c000       f4     2 .data
    c000     c000       f4     2         kprintf.c.o:(.data)
    c000     c000        1     1                 stbsp__period
    c001     c001        1     1                 stbsp__comma
    c002     c002       13     1                 stbsp_vsprintfcb.hex
    c015     c015       13     1                 stbsp_vsprintfcb.hexu
    c028     c028       cc     1                 stbsp__digitpair
    c0f4     c0f4        0     1 _end_data = .
    c0f4     c0f4      f0c     1 . = ALIGN ( 4096 )
    d000     d000        0     1 _start_bss = .
    d000     d000        0     1 _end_bss = .
    d000     d000        0     1 . = ALIGN ( 4096 )
       0        0       29     1 .comment
       0        0       29     1         <internal>:(.comment)
       0        0       4a     1 .ARM.attributes
       0        0       4a     1         kmain.c.o:(.ARM.attributes)
       0        0      5d0     4 .symtab
       0        0      5d0     4         <internal>:(.symtab)
       0        0       58     1 .shstrtab
       0        0       58     1         <internal>:(.shstrtab)
       0        0      327     1 .strtab
       0        0      327     1         <internal>:(.strtab)
